target datalayout = "e-m:e-p270:32:32-p271:32:32-p272:64:64-i64:64-i128:128-f80:128-n8:16:32:64-S128"
target triple = "x86_64-pc-linux-gnu"

%struct.StringInfoData = type { ptr, i32, i32, i32 }

; Function Attrs: nounwind uwtable
define dso_local void @pq_send_ascii_string(ptr noundef %0, ptr noundef %1) #0 {
  %3 = alloca ptr, align 8
  %4 = alloca ptr, align 8
  %5 = alloca i8, align 1
  store ptr %0, ptr %3, align 8
  store ptr %1, ptr %4, align 8
  br label %6

6:                                                ; preds = %50, %2
  %7 = load ptr, ptr %4, align 8
  %8 = load i8, ptr %7, align 1
  %9 = icmp ne i8 %8, 0
  br i1 %9, label %10, label %51

10:                                               ; preds = %6
  call void @llvm.lifetime.start.p0(i64 1, ptr %5) #8
  %11 = load ptr, ptr %4, align 8
  %12 = getelementptr inbounds nuw i8, ptr %11, i32 1
  store ptr %12, ptr %4, align 8
  %13 = load i8, ptr %11, align 1
  store i8 %13, ptr %5, align 1
  %14 = load i8, ptr %5, align 1
  %15 = zext i8 %14 to i32
  %16 = and i32 %15, 128
  %17 = icmp ne i32 %16, 0
  br i1 %17, label %18, label %19

18:                                               ; preds = %10
  store i8 63, ptr %5, align 1
  br label %19

19:                                               ; preds = %18, %10
  %20 = load ptr, ptr %3, align 8
  %21 = getelementptr inbounds nuw %struct.StringInfoData, ptr %20, i32 0, i32 1
  %22 = load i32, ptr %21, align 8
  %23 = add i32 %22, 1
  %24 = load ptr, ptr %3, align 8
  %25 = getelementptr inbounds nuw %struct.StringInfoData, ptr %24, i32 0, i32 2
  %26 = load i32, ptr %25, align 4
  %27 = icmp sge i32 %23, %26
  br i1 %27, label %28, label %31

28:                                               ; preds = %19
  %29 = load ptr, ptr %3, align 8
  %30 = load i8, ptr %5, align 1
  call void @appendStringInfoChar(ptr noundef %29, i8 noundef signext %30)
  br label %50

31:                                               ; preds = %19
  %32 = load i8, ptr %5, align 1
  %33 = load ptr, ptr %3, align 8
  %34 = getelementptr inbounds nuw %struct.StringInfoData, ptr %33, i32 0, i32 0
  %35 = load ptr, ptr %34, align 8
  %36 = load ptr, ptr %3, align 8
  %37 = getelementptr inbounds nuw %struct.StringInfoData, ptr %36, i32 0, i32 1
  %38 = load i32, ptr %37, align 8
  %39 = sext i32 %38 to i64
  %40 = getelementptr inbounds i8, ptr %35, i64 %39
  store i8 %32, ptr %40, align 1
  %41 = load ptr, ptr %3, align 8
  %42 = getelementptr inbounds nuw %struct.StringInfoData, ptr %41, i32 0, i32 0
  %43 = load ptr, ptr %42, align 8
  %44 = load ptr, ptr %3, align 8
  %45 = getelementptr inbounds nuw %struct.StringInfoData, ptr %44, i32 0, i32 1
  %46 = load i32, ptr %45, align 8
  %47 = add i32 %46, 1
  store i32 %47, ptr %45, align 8
  %48 = sext i32 %47 to i64
  %49 = getelementptr inbounds i8, ptr %43, i64 %48
  store i8 0, ptr %49, align 1
  br label %50

50:                                               ; preds = %31, %28
  call void @llvm.lifetime.end.p0(i64 1, ptr %5) #8
  br label %6, !llvm.loop !4

51:                                               ; preds = %6
  %52 = load ptr, ptr %3, align 8
  call void @appendStringInfoChar(ptr noundef %52, i8 noundef signext 0)
  ret void
}