; Function Attrs: nounwind uwtable
define dso_local void @pq_send_ascii_string(ptr noundef %0, ptr noundef readonly captures(none) %1) local_unnamed_addr #0 {
  %3 = load i8, ptr %1, align 1
  %.not15 = icmp eq i8 %3, 0
  br i1 %.not15, label %._crit_edge, label %.lr.ph

.lr.ph:                                           ; preds = %2
  %4 = getelementptr inbounds nuw i8, ptr %0, i64 8
  %5 = getelementptr inbounds nuw i8, ptr %0, i64 12
  br label %6

6:                                                ; preds = %.lr.ph, %22
  %7 = phi i8 [ %3, %.lr.ph ], [ %23, %22 ]
  %.016 = phi ptr [ %1, %.lr.ph ], [ %8, %22 ]
  %8 = getelementptr inbounds nuw i8, ptr %.016, i64 1
  %.not13 = icmp sgt i8 %7, -1
  %spec.store.select = select i1 %.not13, i8 %7, i8 63
  %9 = load i32, ptr %4, align 8
  %10 = add i32 %9, 1
  %11 = load i32, ptr %5, align 4
  %.not14 = icmp slt i32 %10, %11
  br i1 %.not14, label %13, label %12

12:                                               ; preds = %6
  tail call void @appendStringInfoChar(ptr noundef nonnull %0, i8 noundef signext %spec.store.select) #9
  br label %22

13:                                               ; preds = %6
  %14 = load ptr, ptr %0, align 8
  %15 = sext i32 %9 to i64
  %16 = getelementptr inbounds i8, ptr %14, i64 %15
  store i8 %spec.store.select, ptr %16, align 1
  %17 = load ptr, ptr %0, align 8
  %18 = load i32, ptr %4, align 8
  %19 = add i32 %18, 1
  store i32 %19, ptr %4, align 8
  %20 = sext i32 %19 to i64
  %21 = getelementptr inbounds i8, ptr %17, i64 %20
  store i8 0, ptr %21, align 1
  br label %22

22:                                               ; preds = %13, %12
  %23 = load i8, ptr %8, align 1
  %.not = icmp eq i8 %23, 0
  br i1 %.not, label %._crit_edge, label %6, !llvm.loop !10

._crit_edge:                                      ; preds = %22, %2
  tail call void @appendStringInfoChar(ptr noundef %0, i8 noundef signext 0) #9
  ret void
}